; ModuleID = '7/685.c'
source_filename = "7/685.c"
target datalayout = "e-m:e-p270:32:32-p271:32:32-p272:64:64-i64:64-f80:128-n8:16:32:64-S128"
target triple = "x86_64-pc-linux-gnu"

@.str = private unnamed_addr constant [3 x i8] c"%s\00", align 1
@.str.1 = private unnamed_addr constant [3 x i8] c"%c\00", align 1

; Function Attrs: noinline nounwind uwtable
define dso_local i32 @main() #0 {
  %1 = alloca i32, align 4
  %2 = alloca [102 x i8], align 16
  %3 = alloca [102 x i8], align 16
  %4 = alloca [102 x i8], align 16
  %5 = alloca i8*, align 8
  %6 = alloca i8*, align 8
  %7 = alloca i8*, align 8
  %8 = alloca i32, align 4
  %9 = alloca i32, align 4
  %10 = alloca i32, align 4
  %11 = alloca i32, align 4
  %12 = alloca i32, align 4
  %13 = alloca i32, align 4
  store i32 0, i32* %1, align 4
  %14 = getelementptr inbounds [102 x i8], [102 x i8]* %2, i64 0, i64 0
  %15 = call i32 (i8*, ...) bitcast (i32 (...)* @gets to i32 (i8*, ...)*)(i8* %14)
  %16 = getelementptr inbounds [102 x i8], [102 x i8]* %3, i64 0, i64 0
  %17 = call i32 (i8*, ...) bitcast (i32 (...)* @gets to i32 (i8*, ...)*)(i8* %16)
  %18 = getelementptr inbounds [102 x i8], [102 x i8]* %4, i64 0, i64 0
  %19 = call i32 (i8*, ...) bitcast (i32 (...)* @gets to i32 (i8*, ...)*)(i8* %18)
  %20 = getelementptr inbounds [102 x i8], [102 x i8]* %2, i64 0, i64 0
  store i8* %20, i8** %5, align 8
  %21 = getelementptr inbounds [102 x i8], [102 x i8]* %3, i64 0, i64 0
  store i8* %21, i8** %6, align 8
  %22 = getelementptr inbounds [102 x i8], [102 x i8]* %4, i64 0, i64 0
  store i8* %22, i8** %7, align 8
  store i32 0, i32* %10, align 4
  %23 = getelementptr inbounds [102 x i8], [102 x i8]* %2, i64 0, i64 0
  %24 = call i64 @strlen(i8* %23) #3
  %25 = trunc i64 %24 to i32
  store i32 %25, i32* %11, align 4
  store i32 0, i32* %8, align 4
  br label %26

26:                                               ; preds = %72, %0
  %27 = load i32, i32* %8, align 4
  %28 = load i32, i32* %11, align 4
  %29 = icmp slt i32 %27, %28
  br i1 %29, label %30, label %75

30:                                               ; preds = %26
  %31 = load i8*, i8** %6, align 8
  %32 = load i8, i8* %31, align 1
  %33 = sext i8 %32 to i32
  %34 = load i8*, i8** %5, align 8
  %35 = load i32, i32* %8, align 4
  %36 = sext i32 %35 to i64
  %37 = getelementptr inbounds i8, i8* %34, i64 %36
  %38 = load i8, i8* %37, align 1
  %39 = sext i8 %38 to i32
  %40 = icmp eq i32 %33, %39
  br i1 %40, label %41, label %71

41:                                               ; preds = %30
  %42 = load i32, i32* %8, align 4
  store i32 %42, i32* %9, align 4
  %43 = load i32, i32* %8, align 4
  store i32 %43, i32* %12, align 4
  br label %44

44:                                               ; preds = %65, %41
  %45 = load i8*, i8** %6, align 8
  %46 = load i8, i8* %45, align 1
  %47 = sext i8 %46 to i32
  %48 = icmp ne i32 %47, 0
  br i1 %48, label %49, label %70

49:                                               ; preds = %44
  %50 = load i8*, i8** %6, align 8
  %51 = load i8, i8* %50, align 1
  %52 = sext i8 %51 to i32
  %53 = load i8*, i8** %5, align 8
  %54 = load i32, i32* %9, align 4
  %55 = sext i32 %54 to i64
  %56 = getelementptr inbounds i8, i8* %53, i64 %55
  %57 = load i8, i8* %56, align 1
  %58 = sext i8 %57 to i32
  %59 = icmp eq i32 %52, %58
  br i1 %59, label %60, label %63

60:                                               ; preds = %49
  %61 = load i32, i32* %10, align 4
  %62 = add nsw i32 %61, 1
  store i32 %62, i32* %10, align 4
  br label %64

63:                                               ; preds = %49
  br label %70

64:                                               ; preds = %60
  br label %65

65:                                               ; preds = %64
  %66 = load i8*, i8** %6, align 8
  %67 = getelementptr inbounds i8, i8* %66, i32 1
  store i8* %67, i8** %6, align 8
  %68 = load i32, i32* %9, align 4
  %69 = add nsw i32 %68, 1
  store i32 %69, i32* %9, align 4
  br label %44

70:                                               ; preds = %63, %44
  br label %71

71:                                               ; preds = %70, %30
  br label %72

72:                                               ; preds = %71
  %73 = load i32, i32* %8, align 4
  %74 = add nsw i32 %73, 1
  store i32 %74, i32* %8, align 4
  br label %26

75:                                               ; preds = %26
  %76 = getelementptr inbounds [102 x i8], [102 x i8]* %3, i64 0, i64 0
  %77 = call i64 @strlen(i8* %76) #3
  %78 = trunc i64 %77 to i32
  store i32 %78, i32* %13, align 4
  %79 = load i32, i32* %10, align 4
  %80 = load i32, i32* %13, align 4
  %81 = icmp ne i32 %79, %80
  br i1 %81, label %82, label %85

82:                                               ; preds = %75
  %83 = getelementptr inbounds [102 x i8], [102 x i8]* %2, i64 0, i64 0
  %84 = call i32 (i8*, ...) @printf(i8* getelementptr inbounds ([3 x i8], [3 x i8]* @.str, i64 0, i64 0), i8* %83)
  br label %85

85:                                               ; preds = %82, %75
  %86 = load i32, i32* %10, align 4
  %87 = load i32, i32* %13, align 4
  %88 = icmp eq i32 %86, %87
  br i1 %88, label %89, label %125

89:                                               ; preds = %85
  store i32 0, i32* %8, align 4
  br label %90

90:                                               ; preds = %101, %89
  %91 = load i32, i32* %8, align 4
  %92 = load i32, i32* %12, align 4
  %93 = icmp slt i32 %91, %92
  br i1 %93, label %94, label %104

94:                                               ; preds = %90
  %95 = load i32, i32* %8, align 4
  %96 = sext i32 %95 to i64
  %97 = getelementptr inbounds [102 x i8], [102 x i8]* %2, i64 0, i64 %96
  %98 = load i8, i8* %97, align 1
  %99 = sext i8 %98 to i32
  %100 = call i32 (i8*, ...) @printf(i8* getelementptr inbounds ([3 x i8], [3 x i8]* @.str.1, i64 0, i64 0), i32 %99)
  br label %101

101:                                              ; preds = %94
  %102 = load i32, i32* %8, align 4
  %103 = add nsw i32 %102, 1
  store i32 %103, i32* %8, align 4
  br label %90

104:                                              ; preds = %90
  %105 = getelementptr inbounds [102 x i8], [102 x i8]* %4, i64 0, i64 0
  %106 = call i32 (i8*, ...) @printf(i8* getelementptr inbounds ([3 x i8], [3 x i8]* @.str, i64 0, i64 0), i8* %105)
  %107 = load i32, i32* %8, align 4
  %108 = load i32, i32* %10, align 4
  %109 = add nsw i32 %107, %108
  store i32 %109, i32* %8, align 4
  br label %110

110:                                              ; preds = %121, %104
  %111 = load i32, i32* %8, align 4
  %112 = load i32, i32* %11, align 4
  %113 = icmp slt i32 %111, %112
  br i1 %113, label %114, label %124

114:                                              ; preds = %110
  %115 = load i32, i32* %8, align 4
  %116 = sext i32 %115 to i64
  %117 = getelementptr inbounds [102 x i8], [102 x i8]* %2, i64 0, i64 %116
  %118 = load i8, i8* %117, align 1
  %119 = sext i8 %118 to i32
  %120 = call i32 (i8*, ...) @printf(i8* getelementptr inbounds ([3 x i8], [3 x i8]* @.str.1, i64 0, i64 0), i32 %119)
  br label %121

121:                                              ; preds = %114
  %122 = load i32, i32* %8, align 4
  %123 = add nsw i32 %122, 1
  store i32 %123, i32* %8, align 4
  br label %110

124:                                              ; preds = %110
  br label %125

125:                                              ; preds = %124, %85
  ret i32 0
}

declare dso_local i32 @gets(...) #1

; Function Attrs: nounwind readonly
declare dso_local i64 @strlen(i8*) #2

declare dso_local i32 @printf(i8*, ...) #1


!llvm.module.flags = !{!0}
!llvm.ident = !{!1}

!0 = !{i32 1, !"wchar_size", i32 4}
!1 = !{!"clang version 10.0.0-4ubuntu1 "}
